target datalayout = "e-m:e-p270:32:32-p271:32:32-p272:64:64-i64:64-i128:128-f80:128-n8:16:32:64-S128"
target triple = "x86_64-pc-linux-gnu"

%struct.H5G_bt2_ud_lbi_t = type { ptr, ptr, ptr }
%struct.H5G_fh_ud_lbi_t = type { ptr, ptr }
%struct.H5G_dense_bt2_name_rec_t = type { [7 x i8], i32 }

@.str = private unnamed_addr constant [102 x i8] c"generated/home/dtcxzyw/WorkSpace/Projects/compilers/llvm-opt-benchmark/bench/hdf5/hdf5/src/H5Gdense.c\00", align 1
@H5E_SYM_g = external global i64, align 8
@__func__.H5G__dense_lookup_by_idx_bt2_cb = private unnamed_addr constant [32 x i8] c"H5G__dense_lookup_by_idx_bt2_cb\00", align 1
@H5E_CANTOPERATE_g = external global i64, align 8
@.str.41 = private unnamed_addr constant [27 x i8] c"link found callback failed\00", align 1

; Function Attrs: nounwind uwtable
define internal i32 @H5G__dense_lookup_by_idx_bt2_cb(ptr noundef %0, ptr noundef %1) #0 {
  %3 = alloca ptr, align 8
  %4 = alloca ptr, align 8
  %5 = alloca ptr, align 8
  %6 = alloca ptr, align 8
  %7 = alloca %struct.H5G_fh_ud_lbi_t, align 8
  %8 = alloca i32, align 4
  %9 = alloca i8, align 1
  store ptr %0, ptr %3, align 8
  store ptr %1, ptr %4, align 8
  %10 = load ptr, ptr %3, align 8
  store ptr %10, ptr %5, align 8
  %11 = load ptr, ptr %4, align 8
  store ptr %11, ptr %6, align 8
  store i32 0, ptr %8, align 4
  store i8 0, ptr %9, align 1
  %12 = load ptr, ptr %6, align 8
  %13 = getelementptr inbounds %struct.H5G_bt2_ud_lbi_t, ptr %12, i32 0, i32 0
  %14 = load ptr, ptr %13, align 8
  %15 = getelementptr inbounds %struct.H5G_fh_ud_lbi_t, ptr %7, i32 0, i32 0
  store ptr %14, ptr %15, align 8
  %16 = load ptr, ptr %6, align 8
  %17 = getelementptr inbounds %struct.H5G_bt2_ud_lbi_t, ptr %16, i32 0, i32 2
  %18 = load ptr, ptr %17, align 8
  %19 = getelementptr inbounds %struct.H5G_fh_ud_lbi_t, ptr %7, i32 0, i32 1
  store ptr %18, ptr %19, align 8
  %20 = load ptr, ptr %6, align 8
  %21 = getelementptr inbounds %struct.H5G_bt2_ud_lbi_t, ptr %20, i32 0, i32 1
  %22 = load ptr, ptr %21, align 8
  %23 = load ptr, ptr %5, align 8
  %24 = getelementptr inbounds %struct.H5G_dense_bt2_name_rec_t, ptr %23, i32 0, i32 0
  %25 = getelementptr inbounds [7 x i8], ptr %24, i64 0, i64 0
  %26 = call i32 @H5HF_op(ptr noundef %22, ptr noundef %25, ptr noundef @H5G__dense_lookup_by_idx_fh_cb, ptr noundef %7)
  %27 = icmp slt i32 %26, 0
  br i1 %27, label %28, label %43

28:                                               ; preds = %2
  br label %29

29:                                               ; preds = %28
  br label %30

30:                                               ; preds = %29
  br label %31

31:                                               ; preds = %30
  %32 = load i64, ptr @H5E_SYM_g, align 8
  %33 = load i64, ptr @H5E_CANTOPERATE_g, align 8
  %34 = call i32 (ptr, ptr, i32, i64, i64, ptr, ...) @H5E_printf_stack(ptr noundef @.str, ptr noundef @__func__.H5G__dense_lookup_by_idx_bt2_cb, i32 noundef 585, i64 noundef %32, i64 noundef %33, ptr noundef @.str.41)
  br label %35

35:                                               ; preds = %31
  store i8 1, ptr %9, align 1
  %36 = load i8, ptr %9, align 1
  %37 = trunc i8 %36 to i1
  %38 = zext i1 %37 to i8
  store i8 %38, ptr %9, align 1
  br label %39

39:                                               ; preds = %35
  br label %40

40:                                               ; preds = %39
  store i32 -1, ptr %8, align 4
  br label %44

41:                                               ; No predecessors!
  br label %42

42:                                               ; preds = %41
  br label %43

43:                                               ; preds = %42, %2
  br label %44

44:                                               ; preds = %43, %40
  %45 = load i32, ptr %8, align 4
  ret i32 %45
}