; Function Attrs: nounwind uwtable
define internal range(i32 -1, 1) i32 @H5G__dense_lookup_by_idx_bt2_cb(ptr noundef %0, ptr nocapture noundef readonly %1) #0 {
  %3 = alloca %struct.H5G_fh_ud_lbi_t, align 8
  %4 = load ptr, ptr %1, align 8
  store ptr %4, ptr %3, align 8
  %5 = getelementptr inbounds i8, ptr %1, i64 16
  %6 = load ptr, ptr %5, align 8
  %7 = getelementptr inbounds i8, ptr %3, i64 8
  store ptr %6, ptr %7, align 8
  %8 = getelementptr inbounds i8, ptr %1, i64 8
  %9 = load ptr, ptr %8, align 8
  %10 = call i32 @H5HF_op(ptr noundef %9, ptr noundef %0, ptr noundef nonnull @H5G__dense_lookup_by_idx_fh_cb, ptr noundef nonnull %3) #8
  %11 = icmp slt i32 %10, 0
  br i1 %11, label %12, label %16

12:                                               ; preds = %2
  %13 = load i64, ptr @H5E_SYM_g, align 8
  %14 = load i64, ptr @H5E_CANTOPERATE_g, align 8
  %15 = call i32 (ptr, ptr, i32, i64, i64, ptr, ...) @H5E_printf_stack(ptr noundef nonnull @.str, ptr noundef nonnull @__func__.H5G__dense_lookup_by_idx_bt2_cb, i32 noundef 585, i64 noundef %13, i64 noundef %14, ptr noundef nonnull @.str.41) #8
  br label %16

16:                                               ; preds = %2, %12
  %.0 = phi i32 [ -1, %12 ], [ 0, %2 ]
  ret i32 %.0
}